; Function Attrs: nounwind uwtable
define ptr @l_Array_forIn_x27Unsafe_loop___at_Lean_Meta_getFVarSetToGeneralize___spec__63___boxed(ptr noundef %0, ptr noundef %1, ptr noundef %2, ptr noundef %3, ptr noundef %4, ptr noundef %5, ptr noundef %6, ptr noundef %7, ptr noundef %8, ptr noundef %9, ptr noundef %10, ptr noundef %11, ptr noundef %12, ptr noundef %13, ptr noundef %14, ptr noundef %15) local_unnamed_addr #0 {
  %17 = ptrtoint ptr %1 to i64
  %18 = lshr i64 %17, 1
  %19 = trunc i64 %18 to i8
  %20 = and i64 %17, 1
  %.not = icmp eq i64 %20, 0
  br i1 %.not, label %21, label %lean_dec.exit41

21:                                               ; preds = %16
  %22 = load i32, ptr %1, align 4, !tbaa !8
  %23 = icmp sgt i32 %22, 1
  br i1 %23, label %24, label %26, !prof !11

24:                                               ; preds = %21
  %25 = add nsw i32 %22, -1
  store i32 %25, ptr %1, align 4, !tbaa !8
  br label %lean_dec.exit41

26:                                               ; preds = %21
  %.not.i = icmp eq i32 %22, 0
  br i1 %.not.i, label %lean_dec.exit41, label %27

27:                                               ; preds = %26
  tail call void @lean_dec_ref_cold(ptr noundef nonnull %1) #4
  br label %lean_dec.exit41

lean_dec.exit41:                                  ; preds = %27, %26, %24, %16
  %28 = getelementptr i8, ptr %8, i64 8
  %.val64 = load i64, ptr %28, align 8, !tbaa !12
  %29 = ptrtoint ptr %8 to i64
  %30 = and i64 %29, 1
  %.not65 = icmp eq i64 %30, 0
  br i1 %.not65, label %31, label %lean_dec.exit40

31:                                               ; preds = %lean_dec.exit41
  %32 = load i32, ptr %8, align 4, !tbaa !8
  %33 = icmp sgt i32 %32, 1
  br i1 %33, label %34, label %36, !prof !11

34:                                               ; preds = %31
  %35 = add nsw i32 %32, -1
  store i32 %35, ptr %8, align 4, !tbaa !8
  br label %lean_dec.exit40

36:                                               ; preds = %31
  %.not.i42 = icmp eq i32 %32, 0
  br i1 %.not.i42, label %lean_dec.exit40, label %37

37:                                               ; preds = %36
  tail call void @lean_dec_ref_cold(ptr noundef nonnull %8) #4
  br label %lean_dec.exit40

lean_dec.exit40:                                  ; preds = %37, %36, %34, %lean_dec.exit41
  %38 = getelementptr i8, ptr %9, i64 8
  %.val = load i64, ptr %38, align 8, !tbaa !12
  %39 = ptrtoint ptr %9 to i64
  %40 = and i64 %39, 1
  %.not66 = icmp eq i64 %40, 0
  br i1 %.not66, label %41, label %lean_dec.exit39

41:                                               ; preds = %lean_dec.exit40
  %42 = load i32, ptr %9, align 4, !tbaa !8
  %43 = icmp sgt i32 %42, 1
  br i1 %43, label %44, label %46, !prof !11

44:                                               ; preds = %41
  %45 = add nsw i32 %42, -1
  store i32 %45, ptr %9, align 4, !tbaa !8
  br label %lean_dec.exit39

46:                                               ; preds = %41
  %.not.i44 = icmp eq i32 %42, 0
  br i1 %.not.i44, label %lean_dec.exit39, label %47

47:                                               ; preds = %46
  tail call void @lean_dec_ref_cold(ptr noundef nonnull %9) #4
  br label %lean_dec.exit39

lean_dec.exit39:                                  ; preds = %47, %46, %44, %lean_dec.exit40
  %48 = tail call ptr @l_Array_forIn_x27Unsafe_loop___at_Lean_Meta_getFVarSetToGeneralize___spec__63(ptr noundef %0, i8 noundef zeroext %19, ptr noundef %2, ptr noundef %3, ptr poison, ptr poison, ptr noundef %6, ptr noundef %7, i64 noundef %.val64, i64 noundef %.val, ptr noundef %10, ptr noundef %11, ptr noundef %12, ptr noundef %13, ptr noundef %14, ptr noundef %15)
  %49 = ptrtoint ptr %14 to i64
  %50 = and i64 %49, 1
  %.not67 = icmp eq i64 %50, 0
  br i1 %.not67, label %51, label %lean_dec.exit38

51:                                               ; preds = %lean_dec.exit39
  %52 = load i32, ptr %14, align 4, !tbaa !8
  %53 = icmp sgt i32 %52, 1
  br i1 %53, label %54, label %56, !prof !11

54:                                               ; preds = %51
  %55 = add nsw i32 %52, -1
  store i32 %55, ptr %14, align 4, !tbaa !8
  br label %lean_dec.exit38

56:                                               ; preds = %51
  %.not.i46 = icmp eq i32 %52, 0
  br i1 %.not.i46, label %lean_dec.exit38, label %57

57:                                               ; preds = %56
  tail call void @lean_dec_ref_cold(ptr noundef nonnull %14) #4
  br label %lean_dec.exit38

lean_dec.exit38:                                  ; preds = %57, %56, %54, %lean_dec.exit39
  %58 = ptrtoint ptr %13 to i64
  %59 = and i64 %58, 1
  %.not68 = icmp eq i64 %59, 0
  br i1 %.not68, label %60, label %lean_dec.exit37

60:                                               ; preds = %lean_dec.exit38
  %61 = load i32, ptr %13, align 4, !tbaa !8
  %62 = icmp sgt i32 %61, 1
  br i1 %62, label %63, label %65, !prof !11

63:                                               ; preds = %60
  %64 = add nsw i32 %61, -1
  store i32 %64, ptr %13, align 4, !tbaa !8
  br label %lean_dec.exit37

65:                                               ; preds = %60
  %.not.i48 = icmp eq i32 %61, 0
  br i1 %.not.i48, label %lean_dec.exit37, label %66

66:                                               ; preds = %65
  tail call void @lean_dec_ref_cold(ptr noundef nonnull %13) #4
  br label %lean_dec.exit37

lean_dec.exit37:                                  ; preds = %66, %65, %63, %lean_dec.exit38
  %67 = ptrtoint ptr %12 to i64
  %68 = and i64 %67, 1
  %.not69 = icmp eq i64 %68, 0
  br i1 %.not69, label %69, label %lean_dec.exit36

69:                                               ; preds = %lean_dec.exit37
  %70 = load i32, ptr %12, align 4, !tbaa !8
  %71 = icmp sgt i32 %70, 1
  br i1 %71, label %72, label %74, !prof !11

72:                                               ; preds = %69
  %73 = add nsw i32 %70, -1
  store i32 %73, ptr %12, align 4, !tbaa !8
  br label %lean_dec.exit36

74:                                               ; preds = %69
  %.not.i50 = icmp eq i32 %70, 0
  br i1 %.not.i50, label %lean_dec.exit36, label %75

75:                                               ; preds = %74
  tail call void @lean_dec_ref_cold(ptr noundef nonnull %12) #4
  br label %lean_dec.exit36

lean_dec.exit36:                                  ; preds = %75, %74, %72, %lean_dec.exit37
  %76 = ptrtoint ptr %11 to i64
  %77 = and i64 %76, 1
  %.not70 = icmp eq i64 %77, 0
  br i1 %.not70, label %78, label %lean_dec.exit35

78:                                               ; preds = %lean_dec.exit36
  %79 = load i32, ptr %11, align 4, !tbaa !8
  %80 = icmp sgt i32 %79, 1
  br i1 %80, label %81, label %83, !prof !11

81:                                               ; preds = %78
  %82 = add nsw i32 %79, -1
  store i32 %82, ptr %11, align 4, !tbaa !8
  br label %lean_dec.exit35

83:                                               ; preds = %78
  %.not.i52 = icmp eq i32 %79, 0
  br i1 %.not.i52, label %lean_dec.exit35, label %84

84:                                               ; preds = %83
  tail call void @lean_dec_ref_cold(ptr noundef nonnull %11) #4
  br label %lean_dec.exit35

lean_dec.exit35:                                  ; preds = %84, %83, %81, %lean_dec.exit36
  %85 = ptrtoint ptr %7 to i64
  %86 = and i64 %85, 1
  %.not71 = icmp eq i64 %86, 0
  br i1 %.not71, label %87, label %lean_dec.exit34

87:                                               ; preds = %lean_dec.exit35
  %88 = load i32, ptr %7, align 4, !tbaa !8
  %89 = icmp sgt i32 %88, 1
  br i1 %89, label %90, label %92, !prof !11

90:                                               ; preds = %87
  %91 = add nsw i32 %88, -1
  store i32 %91, ptr %7, align 4, !tbaa !8
  br label %lean_dec.exit34

92:                                               ; preds = %87
  %.not.i54 = icmp eq i32 %88, 0
  br i1 %.not.i54, label %lean_dec.exit34, label %93

93:                                               ; preds = %92
  tail call void @lean_dec_ref_cold(ptr noundef nonnull %7) #4
  br label %lean_dec.exit34

lean_dec.exit34:                                  ; preds = %93, %92, %90, %lean_dec.exit35
  %94 = ptrtoint ptr %5 to i64
  %95 = and i64 %94, 1
  %.not72 = icmp eq i64 %95, 0
  br i1 %.not72, label %96, label %lean_dec.exit33

96:                                               ; preds = %lean_dec.exit34
  %97 = load i32, ptr %5, align 4, !tbaa !8
  %98 = icmp sgt i32 %97, 1
  br i1 %98, label %99, label %101, !prof !11

99:                                               ; preds = %96
  %100 = add nsw i32 %97, -1
  store i32 %100, ptr %5, align 4, !tbaa !8
  br label %lean_dec.exit33

101:                                              ; preds = %96
  %.not.i56 = icmp eq i32 %97, 0
  br i1 %.not.i56, label %lean_dec.exit33, label %102

102:                                              ; preds = %101
  tail call void @lean_dec_ref_cold(ptr noundef nonnull %5) #4
  br label %lean_dec.exit33

lean_dec.exit33:                                  ; preds = %102, %101, %99, %lean_dec.exit34
  %103 = ptrtoint ptr %4 to i64
  %104 = and i64 %103, 1
  %.not73 = icmp eq i64 %104, 0
  br i1 %.not73, label %105, label %lean_dec.exit32

105:                                              ; preds = %lean_dec.exit33
  %106 = load i32, ptr %4, align 4, !tbaa !8
  %107 = icmp sgt i32 %106, 1
  br i1 %107, label %108, label %110, !prof !11

108:                                              ; preds = %105
  %109 = add nsw i32 %106, -1
  store i32 %109, ptr %4, align 4, !tbaa !8
  br label %lean_dec.exit32

110:                                              ; preds = %105
  %.not.i58 = icmp eq i32 %106, 0
  br i1 %.not.i58, label %lean_dec.exit32, label %111

111:                                              ; preds = %110
  tail call void @lean_dec_ref_cold(ptr noundef nonnull %4) #4
  br label %lean_dec.exit32

lean_dec.exit32:                                  ; preds = %111, %110, %108, %lean_dec.exit33
  %112 = ptrtoint ptr %3 to i64
  %113 = and i64 %112, 1
  %.not74 = icmp eq i64 %113, 0
  br i1 %.not74, label %114, label %lean_dec.exit31

114:                                              ; preds = %lean_dec.exit32
  %115 = load i32, ptr %3, align 4, !tbaa !8
  %116 = icmp sgt i32 %115, 1
  br i1 %116, label %117, label %119, !prof !11

117:                                              ; preds = %114
  %118 = add nsw i32 %115, -1
  store i32 %118, ptr %3, align 4, !tbaa !8
  br label %lean_dec.exit31

119:                                              ; preds = %114
  %.not.i60 = icmp eq i32 %115, 0
  br i1 %.not.i60, label %lean_dec.exit31, label %120

120:                                              ; preds = %119
  tail call void @lean_dec_ref_cold(ptr noundef nonnull %3) #4
  br label %lean_dec.exit31

lean_dec.exit31:                                  ; preds = %120, %119, %117, %lean_dec.exit32
  %121 = ptrtoint ptr %0 to i64
  %122 = and i64 %121, 1
  %.not75 = icmp eq i64 %122, 0
  br i1 %.not75, label %123, label %lean_dec.exit

123:                                              ; preds = %lean_dec.exit31
  %124 = load i32, ptr %0, align 4, !tbaa !8
  %125 = icmp sgt i32 %124, 1
  br i1 %125, label %126, label %128, !prof !11

126:                                              ; preds = %123
  %127 = add nsw i32 %124, -1
  store i32 %127, ptr %0, align 4, !tbaa !8
  br label %lean_dec.exit

128:                                              ; preds = %123
  %.not.i62 = icmp eq i32 %124, 0
  br i1 %.not.i62, label %lean_dec.exit, label %129

129:                                              ; preds = %128
  tail call void @lean_dec_ref_cold(ptr noundef nonnull %0) #4
  br label %lean_dec.exit

lean_dec.exit:                                    ; preds = %129, %128, %126, %lean_dec.exit31
  ret ptr %48
}